; Function Attrs: nounwind uwtable
define dso_local void @srun_step_signal(ptr noundef readonly captures(none) %0, i16 noundef zeroext %1) local_unnamed_addr #0 {
  %3 = alloca ptr, align 8
  %4 = getelementptr inbounds nuw i8, ptr %0, i64 192
  %5 = load i16, ptr %4, align 8
  %.not = icmp eq i16 %5, 0
  br i1 %.not, label %42, label %6

6:                                                ; preds = %2
  %7 = getelementptr inbounds nuw i8, ptr %0, i64 128
  %8 = load ptr, ptr %7, align 8
  %.not12 = icmp eq ptr %8, null
  br i1 %.not12, label %42, label %9

9:                                                ; preds = %6
  %10 = load i8, ptr %8, align 1
  %.not13 = icmp eq i8 %10, 0
  br i1 %.not13, label %42, label %11

11:                                               ; preds = %9
  call void @llvm.lifetime.start.p0(i64 8, ptr nonnull %3) #6
  %12 = tail call ptr @slurm_xcalloc(i64 noundef 1, i64 noundef 128, i1 noundef zeroext true, i1 noundef zeroext false, ptr noundef nonnull @.str, i32 noundef 114, ptr noundef nonnull @__func__._srun_set_addr) #6
  %13 = load ptr, ptr %7, align 8
  %14 = tail call ptr @slurm_conf_get_nodeaddr(ptr noundef %13) #6
  store ptr %14, ptr %3, align 8
  %.not.i = icmp eq ptr %14, null
  %15 = load i16, ptr %4, align 8
  br i1 %.not.i, label %17, label %16

16:                                               ; preds = %11
  tail call void @slurm_set_addr(ptr noundef %12, i16 noundef zeroext %15, ptr noundef nonnull %14) #6
  call void @slurm_xfree(ptr noundef nonnull %3) #6
  br label %_srun_set_addr.exit

17:                                               ; preds = %11
  %18 = load ptr, ptr %7, align 8
  tail call void @slurm_set_addr(ptr noundef %12, i16 noundef zeroext %15, ptr noundef %18) #6
  br label %_srun_set_addr.exit

_srun_set_addr.exit:                              ; preds = %16, %17
  call void @llvm.lifetime.end.p0(i64 8, ptr nonnull %3) #6
  %19 = call ptr @slurm_xcalloc(i64 noundef 1, i64 noundef 48, i1 noundef zeroext true, i1 noundef zeroext false, ptr noundef nonnull @.str, i32 noundef 574, ptr noundef nonnull @__func__.srun_step_signal) #6
  %20 = getelementptr inbounds nuw i8, ptr %19, i64 24
  %21 = getelementptr inbounds nuw i8, ptr %0, i64 280
  call void @llvm.memcpy.p0.p0.i64(ptr noundef nonnull align 8 dereferenceable(24) %20, ptr noundef nonnull align 8 dereferenceable(24) %21, i64 24, i1 false)
  %22 = getelementptr inbounds nuw i8, ptr %19, i64 8
  store i16 %1, ptr %22, align 8
  %23 = load ptr, ptr %7, align 8
  %24 = getelementptr inbounds nuw i8, ptr %0, i64 136
  %25 = load ptr, ptr %24, align 8
  %26 = getelementptr inbounds nuw i8, ptr %25, i64 1096
  %27 = load i32, ptr %26, align 8
  %28 = getelementptr inbounds nuw i8, ptr %0, i64 208
  %29 = load i16, ptr %28, align 8
  %30 = call ptr @slurm_xcalloc(i64 noundef 1, i64 noundef 56, i1 noundef zeroext true, i1 noundef zeroext false, ptr noundef nonnull @.str, i32 noundef 61, ptr noundef nonnull @__func__._srun_agent_launch) #6
  store i32 1, ptr %30, align 8
  %31 = getelementptr inbounds nuw i8, ptr %30, i64 4
  store i16 0, ptr %31, align 4
  %32 = getelementptr inbounds nuw i8, ptr %30, i64 16
  store ptr %12, ptr %32, align 8
  %33 = call ptr @hostlist_create(ptr noundef %23) #6
  %34 = getelementptr inbounds nuw i8, ptr %30, i64 24
  store ptr %33, ptr %34, align 8
  %35 = getelementptr inbounds nuw i8, ptr %30, i64 36
  store i32 7009, ptr %35, align 4
  %36 = getelementptr inbounds nuw i8, ptr %30, i64 40
  store ptr %19, ptr %36, align 8
  call void @set_agent_arg_r_uid(ptr noundef nonnull %30, i32 noundef %27) #6
  %37 = call i16 @llvm.umin.i16(i16 %29, i16 11008)
  %38 = getelementptr inbounds nuw i8, ptr %30, i64 32
  store i16 %37, ptr %38, align 8
  %39 = load ptr, ptr @stepmgr_ops, align 8
  %40 = getelementptr inbounds nuw i8, ptr %39, i64 64
  %41 = load ptr, ptr %40, align 8
  call void %41(ptr noundef nonnull %30) #6
  br label %42

42:                                               ; preds = %_srun_set_addr.exit, %9, %6, %2
  ret void
}